(lp0
(S'cppflags'
p1
ccopy_reg
_reconstructor
p2
(cino.utils
SpaceList
p3
c__builtin__
list
p4
(lp5
S'-mmcu=atmega2560'
p6
aS'-DF_CPU=16000000L'
p7
aS'-DARDUINO=105'
p8
aS'-I/usr/share/arduino/hardware/arduino/cores/arduino'
p9
aS'-ffunction-sections'
p10
aS'-fdata-sections'
p11
aS'-g'
p12
aS'-Os'
p13
aS'-w'
p14
aS'-I/usr/share/arduino/hardware/arduino/variants/mega'
p15
aS'-Ilib/Encoder-Library'
p16
aS'-Ilib/Encoder-Library/utility'
p17
aS'-Ilib/Arduino-PID-Library'
p18
aS'-I/usr/share/arduino/hardware/arduino/cores/arduino'
p19
aS'-I/usr/share/arduino/hardware/arduino/cores/arduino/avr-libc'
p20
atp21
Rp22
tp23
a(S'cxx'
p24
S'/usr/share/arduino/hardware/tools/avr/bin/avr-g++'
p25
tp26
a(S'arduino_libraries_dir'
p27
S'/usr/share/arduino/libraries'
p28
tp29
a(S'avrdude'
p30
S'/usr/share/arduino/hardware/tools/avrdude'
p31
tp32
a(S'ar'
p33
S'/usr/share/arduino/hardware/tools/avr/bin/avr-ar'
p34
tp35
a(S'names'
p36
(dp37
S'cpp'
p38
S'%s.cpp'
p39
sS'obj'
p40
S'%s.o'
p41
sS'lib'
p42
S'lib%s.a'
p43
sS'deps'
p44
S'%s.d'
p45
stp46
a(S'ldflags'
p47
g2
(g3
g4
(lp48
g6
aS'-Wl,-Os'
p49
aS'-Wl,--gc-sections'
p50
atp51
Rp52
tp53
a(S'arduino_lib_version'
p54
g2
(cino.environment
Version
p55
c__builtin__
tuple
p56
(I1
I0
I5
tp57
tp58
Rp59
tp60
a(S'objcopy'
p61
S'/usr/share/arduino/hardware/tools/avr/bin/avr-objcopy'
p62
tp63
a(S'board_models'
p64
cino.environment
BoardModels
p65
((lp66
(lp67
S'uno'
p68
a(dp69
S'_coredir'
p70
S'/usr/share/arduino/hardware/arduino'
p71
sS'bootloader'
p72
(dp73
S'extended_fuses'
p74
S'0xfd'
p75
sS'high_fuses'
p76
S'0xde'
p77
sS'low_fuses'
p78
S'0xff'
p79
sS'lock_bits'
p80
S'0xcf'
p81
sS'file'
p82
S'optiboot_atmega328.hex'
p83
sS'path'
p84
S'optiboot'
p85
sS'unlock_bits'
p86
S'0xff'
p87
ssS'build'
p88
(dp89
S'core'
p90
S'arduino'
p91
sS'mcu'
p92
S'atmega328p'
p93
sS'f_cpu'
p94
S'16000000L'
p95
sS'variant'
p96
S'standard'
p97
ssS'name'
p98
S'Arduino Uno'
p99
sS'upload'
p100
(dp101
S'protocol'
p102
S'arduino'
p103
sS'maximum_size'
p104
S'32256'
p105
sS'speed'
p106
S'115200'
p107
ssaa(lp108
S'atmega328'
p109
a(dp110
g70
S'/usr/share/arduino/hardware/arduino'
p111
sS'bootloader'
p112
(dp113
S'extended_fuses'
p114
S'0xfd'
p115
sS'high_fuses'
p116
S'0xDA'
p117
sS'low_fuses'
p118
S'0xFF'
p119
sS'lock_bits'
p120
S'0xcf'
p121
sS'file'
p122
S'ATmegaBOOT_168_atmega328.hex'
p123
sS'path'
p124
S'atmega'
p125
sS'unlock_bits'
p126
S'0xff'
p127
ssS'build'
p128
(dp129
S'core'
p130
S'arduino'
p131
sS'mcu'
p132
S'atmega328p'
p133
sS'f_cpu'
p134
S'16000000L'
p135
sS'variant'
p136
S'standard'
p137
ssS'name'
p138
S'Arduino Duemilanove w/ ATmega328'
p139
sS'upload'
p140
(dp141
S'protocol'
p142
S'arduino'
p143
sS'maximum_size'
p144
S'30720'
p145
sS'speed'
p146
S'57600'
p147
ssaa(lp148
S'diecimila'
p149
a(dp150
g70
S'/usr/share/arduino/hardware/arduino'
p151
sS'bootloader'
p152
(dp153
S'extended_fuses'
p154
S'0xf8'
p155
sS'high_fuses'
p156
S'0xdd'
p157
sS'low_fuses'
p158
S'0xff'
p159
sS'lock_bits'
p160
S'0xcf'
p161
sS'file'
p162
S'ATmegaBOOT_168_diecimila.hex'
p163
sS'path'
p164
S'atmega'
p165
sS'unlock_bits'
p166
S'0xff'
p167
ssS'build'
p168
(dp169
S'core'
p170
S'arduino'
p171
sS'mcu'
p172
S'atmega168'
p173
sS'f_cpu'
p174
S'16000000L'
p175
sS'variant'
p176
S'standard'
p177
ssS'name'
p178
S'Arduino Diecimila or Duemilanove w/ ATmega168'
p179
sS'upload'
p180
(dp181
S'protocol'
p182
S'arduino'
p183
sS'maximum_size'
p184
S'14336'
p185
sS'speed'
p186
S'19200'
p187
ssaa(lp188
S'nano328'
p189
a(dp190
g70
S'/usr/share/arduino/hardware/arduino'
p191
sS'bootloader'
p192
(dp193
S'extended_fuses'
p194
S'0xfd'
p195
sS'high_fuses'
p196
S'0xDA'
p197
sS'low_fuses'
p198
S'0xFF'
p199
sS'lock_bits'
p200
S'0xcf'
p201
sS'file'
p202
S'ATmegaBOOT_168_atmega328.hex'
p203
sS'path'
p204
S'atmega'
p205
sS'unlock_bits'
p206
S'0xff'
p207
ssS'build'
p208
(dp209
S'core'
p210
S'arduino'
p211
sS'mcu'
p212
S'atmega328p'
p213
sS'f_cpu'
p214
S'16000000L'
p215
sS'variant'
p216
S'eightanaloginputs'
p217
ssS'name'
p218
S'Arduino Nano w/ ATmega328'
p219
sS'upload'
p220
(dp221
S'protocol'
p222
S'arduino'
p223
sS'maximum_size'
p224
S'30720'
p225
sS'speed'
p226
S'57600'
p227
ssaa(lp228
S'nano'
p229
a(dp230
g70
S'/usr/share/arduino/hardware/arduino'
p231
sS'bootloader'
p232
(dp233
S'extended_fuses'
p234
S'0xf8'
p235
sS'high_fuses'
p236
S'0xdd'
p237
sS'low_fuses'
p238
S'0xff'
p239
sS'lock_bits'
p240
S'0xcf'
p241
sS'file'
p242
S'ATmegaBOOT_168_diecimila.hex'
p243
sS'path'
p244
S'atmega'
p245
sS'unlock_bits'
p246
S'0xff'
p247
ssS'build'
p248
(dp249
S'core'
p250
S'arduino'
p251
sS'mcu'
p252
S'atmega168'
p253
sS'f_cpu'
p254
S'16000000L'
p255
sS'variant'
p256
S'eightanaloginputs'
p257
ssS'name'
p258
S'Arduino Nano w/ ATmega168'
p259
sS'upload'
p260
(dp261
S'protocol'
p262
S'arduino'
p263
sS'maximum_size'
p264
S'14336'
p265
sS'speed'
p266
S'19200'
p267
ssaa(lp268
S'mega2560'
p269
a(dp270
g70
S'/usr/share/arduino/hardware/arduino'
p271
sS'bootloader'
p272
(dp273
S'extended_fuses'
p274
S'0xFD'
p275
sS'high_fuses'
p276
S'0xD8'
p277
sS'low_fuses'
p278
S'0xFF'
p279
sS'lock_bits'
p280
S'0xcf'
p281
sS'file'
p282
S'stk500boot_v2_mega2560.hex'
p283
sS'path'
p284
S'stk500v2'
p285
sS'unlock_bits'
p286
S'0xff'
p287
ssS'build'
p288
(dp289
S'core'
p290
S'arduino'
p291
sS'mcu'
p292
S'atmega2560'
p293
sS'f_cpu'
p294
S'16000000L'
p295
sS'variant'
p296
S'mega'
p297
ssS'name'
p298
S'Arduino Mega 2560 or Mega ADK'
p299
sS'upload'
p300
(dp301
S'protocol'
p302
S'wiring'
p303
sS'maximum_size'
p304
S'258048'
p305
sS'speed'
p306
S'115200'
p307
ssaa(lp308
S'mega'
p309
a(dp310
g70
S'/usr/share/arduino/hardware/arduino'
p311
sS'bootloader'
p312
(dp313
S'extended_fuses'
p314
S'0xF5'
p315
sS'high_fuses'
p316
S'0xDA'
p317
sS'low_fuses'
p318
S'0xFF'
p319
sS'lock_bits'
p320
S'0xcf'
p321
sS'file'
p322
S'ATmegaBOOT_168_atmega1280.hex'
p323
sS'path'
p324
S'atmega'
p325
sS'unlock_bits'
p326
S'0xff'
p327
ssS'build'
p328
(dp329
S'core'
p330
S'arduino'
p331
sS'mcu'
p332
S'atmega1280'
p333
sS'f_cpu'
p334
S'16000000L'
p335
sS'variant'
p336
S'mega'
p337
ssS'name'
p338
S'Arduino Mega (ATmega1280)'
p339
sS'upload'
p340
(dp341
S'protocol'
p342
S'arduino'
p343
sS'maximum_size'
p344
S'126976'
p345
sS'speed'
p346
S'57600'
p347
ssaa(lp348
S'leonardo'
p349
a(dp350
g70
S'/usr/share/arduino/hardware/arduino'
p351
sS'bootloader'
p352
(dp353
S'extended_fuses'
p354
S'0xcb'
p355
sS'high_fuses'
p356
S'0xd8'
p357
sS'low_fuses'
p358
S'0xff'
p359
sS'lock_bits'
p360
S'0xef'
p361
sS'file'
p362
S'Caterina-Leonardo.hex'
p363
sS'path'
p364
S'caterina'
p365
sS'unlock_bits'
p366
S'0xff'
p367
ssS'build'
p368
(dp369
S'core'
p370
S'arduino'
p371
sS'f_cpu'
p372
S'16000000L'
p373
sS'vid'
p374
S'0x2341'
p375
sS'pid'
p376
S'0x8036'
p377
sS'variant'
p378
S'leonardo'
p379
sS'mcu'
p380
S'atmega32u4'
p381
ssS'name'
p382
S'Arduino Leonardo'
p383
sS'upload'
p384
(dp385
S'protocol'
p386
S'avr109'
p387
sS'maximum_size'
p388
S'28672'
p389
sS'speed'
p390
S'57600'
p391
sS'disable_flushing'
p392
S'true'
p393
ssaa(lp394
S'esplora'
p395
a(dp396
g70
S'/usr/share/arduino/hardware/arduino'
p397
sS'bootloader'
p398
(dp399
S'extended_fuses'
p400
S'0xcb'
p401
sS'high_fuses'
p402
S'0xd8'
p403
sS'low_fuses'
p404
S'0xff'
p405
sS'lock_bits'
p406
S'0xef'
p407
sS'file'
p408
S'Caterina-Esplora.hex'
p409
sS'path'
p410
S'caterina'
p411
sS'unlock_bits'
p412
S'0xff'
p413
ssS'build'
p414
(dp415
S'core'
p416
S'arduino'
p417
sS'f_cpu'
p418
S'16000000L'
p419
sS'vid'
p420
S'0x2341'
p421
sS'pid'
p422
S'0x803C'
p423
sS'variant'
p424
S'leonardo'
p425
sS'mcu'
p426
S'atmega32u4'
p427
ssS'name'
p428
S'Arduino Esplora'
p429
sS'upload'
p430
(dp431
S'protocol'
p432
S'avr109'
p433
sS'maximum_size'
p434
S'28672'
p435
sS'speed'
p436
S'57600'
p437
sS'disable_flushing'
p438
S'true'
p439
ssaa(lp440
S'micro'
p441
a(dp442
g70
S'/usr/share/arduino/hardware/arduino'
p443
sS'bootloader'
p444
(dp445
S'extended_fuses'
p446
S'0xcb'
p447
sS'high_fuses'
p448
S'0xd8'
p449
sS'low_fuses'
p450
S'0xff'
p451
sS'lock_bits'
p452
S'0xef'
p453
sS'file'
p454
S'Caterina-Micro.hex'
p455
sS'path'
p456
S'caterina'
p457
sS'unlock_bits'
p458
S'0xff'
p459
ssS'build'
p460
(dp461
S'core'
p462
S'arduino'
p463
sS'f_cpu'
p464
S'16000000L'
p465
sS'vid'
p466
S'0x2341'
p467
sS'pid'
p468
S'0x8037'
p469
sS'variant'
p470
S'micro'
p471
sS'mcu'
p472
S'atmega32u4'
p473
ssS'name'
p474
S'Arduino Micro'
p475
sS'upload'
p476
(dp477
S'protocol'
p478
S'avr109'
p479
sS'maximum_size'
p480
S'28672'
p481
sS'speed'
p482
S'57600'
p483
sS'disable_flushing'
p484
S'true'
p485
ssaa(lp486
S'mini328'
p487
a(dp488
g70
S'/usr/share/arduino/hardware/arduino'
p489
sS'bootloader'
p490
(dp491
S'extended_fuses'
p492
S'0xfd'
p493
sS'high_fuses'
p494
S'0xd8'
p495
sS'low_fuses'
p496
S'0xff'
p497
sS'lock_bits'
p498
S'0xcf'
p499
sS'file'
p500
S'optiboot_atmega328-Mini.hex'
p501
sS'path'
p502
S'optiboot'
p503
sS'unlock_bits'
p504
S'0xff'
p505
ssS'build'
p506
(dp507
S'core'
p508
S'arduino'
p509
sS'mcu'
p510
S'atmega328p'
p511
sS'f_cpu'
p512
S'16000000L'
p513
sS'variant'
p514
S'eightanaloginputs'
p515
ssS'name'
p516
S'Arduino Mini w/ ATmega328'
p517
sS'upload'
p518
(dp519
S'protocol'
p520
S'arduino'
p521
sS'maximum_size'
p522
S'28672'
p523
sS'speed'
p524
S'115200'
p525
ssaa(lp526
S'mini'
p527
a(dp528
g70
S'/usr/share/arduino/hardware/arduino'
p529
sS'bootloader'
p530
(dp531
S'extended_fuses'
p532
S'0xf8'
p533
sS'high_fuses'
p534
S'0xdd'
p535
sS'low_fuses'
p536
S'0xff'
p537
sS'lock_bits'
p538
S'0xcf'
p539
sS'file'
p540
S'ATmegaBOOT_168_ng.hex'
p541
sS'path'
p542
S'atmega'
p543
sS'unlock_bits'
p544
S'0xff'
p545
ssS'build'
p546
(dp547
S'core'
p548
S'arduino'
p549
sS'mcu'
p550
S'atmega168'
p551
sS'f_cpu'
p552
S'16000000L'
p553
sS'variant'
p554
S'eightanaloginputs'
p555
ssS'name'
p556
S'Arduino Mini w/ ATmega168'
p557
sS'upload'
p558
(dp559
S'protocol'
p560
S'arduino'
p561
sS'maximum_size'
p562
S'14336'
p563
sS'speed'
p564
S'19200'
p565
ssaa(lp566
S'ethernet'
p567
a(dp568
g70
S'/usr/share/arduino/hardware/arduino'
p569
sS'bootloader'
p570
(dp571
S'extended_fuses'
p572
S'0xfd'
p573
sS'high_fuses'
p574
S'0xde'
p575
sS'low_fuses'
p576
S'0xff'
p577
sS'lock_bits'
p578
S'0xcf'
p579
sS'file'
p580
S'optiboot_atmega328.hex'
p581
sS'path'
p582
S'optiboot'
p583
sS'unlock_bits'
p584
S'0xff'
p585
ssS'build'
p586
(dp587
S'variant'
p588
S'standard'
p589
sS'mcu'
p590
S'atmega328p'
p591
sS'f_cpu'
p592
S'16000000L'
p593
sS'core'
p594
S'arduino'
p595
ssS'name'
p596
S'Arduino Ethernet'
p597
sS'upload'
p598
(dp599
S'protocol'
p600
S'arduino'
p601
sS'maximum_size'
p602
S'32256'
p603
sS'speed'
p604
S'115200'
p605
ssaa(lp606
S'fio'
p607
a(dp608
g70
S'/usr/share/arduino/hardware/arduino'
p609
sS'bootloader'
p610
(dp611
S'extended_fuses'
p612
S'0xfd'
p613
sS'high_fuses'
p614
S'0xDA'
p615
sS'low_fuses'
p616
S'0xFF'
p617
sS'lock_bits'
p618
S'0xcf'
p619
sS'file'
p620
S'ATmegaBOOT_168_atmega328_pro_8MHz.hex'
p621
sS'path'
p622
S'arduino:atmega'
p623
sS'unlock_bits'
p624
S'0xff'
p625
ssS'build'
p626
(dp627
S'core'
p628
S'arduino'
p629
sS'mcu'
p630
S'atmega328p'
p631
sS'f_cpu'
p632
S'8000000L'
p633
sS'variant'
p634
S'eightanaloginputs'
p635
ssS'name'
p636
S'Arduino Fio'
p637
sS'upload'
p638
(dp639
S'protocol'
p640
S'arduino'
p641
sS'maximum_size'
p642
S'30720'
p643
sS'speed'
p644
S'57600'
p645
ssaa(lp646
S'bt328'
p647
a(dp648
g70
S'/usr/share/arduino/hardware/arduino'
p649
sS'bootloader'
p650
(dp651
S'extended_fuses'
p652
S'0xfd'
p653
sS'high_fuses'
p654
S'0xd8'
p655
sS'low_fuses'
p656
S'0xff'
p657
sS'lock_bits'
p658
S'0xcf'
p659
sS'file'
p660
S'ATmegaBOOT_168_atmega328_bt.hex'
p661
sS'path'
p662
S'bt'
p663
sS'unlock_bits'
p664
S'0xff'
p665
ssS'build'
p666
(dp667
S'core'
p668
S'arduino'
p669
sS'mcu'
p670
S'atmega328p'
p671
sS'f_cpu'
p672
S'16000000L'
p673
sS'variant'
p674
S'eightanaloginputs'
p675
ssS'name'
p676
S'Arduino BT w/ ATmega328'
p677
sS'upload'
p678
(dp679
S'protocol'
p680
S'arduino'
p681
sS'maximum_size'
p682
S'28672'
p683
sS'speed'
p684
S'19200'
p685
sS'disable_flushing'
p686
S'true'
p687
ssaa(lp688
S'bt'
p689
a(dp690
g70
S'/usr/share/arduino/hardware/arduino'
p691
sS'bootloader'
p692
(dp693
S'extended_fuses'
p694
S'0xf8'
p695
sS'high_fuses'
p696
S'0xdd'
p697
sS'low_fuses'
p698
S'0xff'
p699
sS'lock_bits'
p700
S'0xcf'
p701
sS'file'
p702
S'ATmegaBOOT_168.hex'
p703
sS'path'
p704
S'bt'
p705
sS'unlock_bits'
p706
S'0xff'
p707
ssS'build'
p708
(dp709
S'core'
p710
S'arduino'
p711
sS'mcu'
p712
S'atmega168'
p713
sS'f_cpu'
p714
S'16000000L'
p715
sS'variant'
p716
S'eightanaloginputs'
p717
ssS'name'
p718
S'Arduino BT w/ ATmega168'
p719
sS'upload'
p720
(dp721
S'protocol'
p722
S'arduino'
p723
sS'maximum_size'
p724
S'14336'
p725
sS'speed'
p726
S'19200'
p727
sS'disable_flushing'
p728
S'true'
p729
ssaa(lp730
S'LilyPadUSB'
p731
a(dp732
g70
S'/usr/share/arduino/hardware/arduino'
p733
sS'bootloader'
p734
(dp735
S'extended_fuses'
p736
S'0xce'
p737
sS'high_fuses'
p738
S'0xd8'
p739
sS'low_fuses'
p740
S'0xff'
p741
sS'lock_bits'
p742
S'0xef'
p743
sS'file'
p744
S'Caterina-LilyPadUSB.hex'
p745
sS'path'
p746
S'caterina-LilyPadUSB'
p747
sS'unlock_bits'
p748
S'0xff'
p749
ssS'build'
p750
(dp751
S'core'
p752
S'arduino'
p753
sS'f_cpu'
p754
S'8000000L'
p755
sS'vid'
p756
S'0x1B4F'
p757
sS'pid'
p758
S'0x9208'
p759
sS'variant'
p760
S'leonardo'
p761
sS'mcu'
p762
S'atmega32u4'
p763
ssS'name'
p764
S'LilyPad Arduino USB'
p765
sS'upload'
p766
(dp767
S'protocol'
p768
S'avr109'
p769
sS'maximum_size'
p770
S'28672'
p771
sS'speed'
p772
S'57600'
p773
sS'disable_flushing'
p774
S'true'
p775
ssaa(lp776
S'lilypad328'
p777
a(dp778
g70
S'/usr/share/arduino/hardware/arduino'
p779
sS'bootloader'
p780
(dp781
S'extended_fuses'
p782
S'0xfd'
p783
sS'high_fuses'
p784
S'0xDA'
p785
sS'low_fuses'
p786
S'0xFF'
p787
sS'lock_bits'
p788
S'0xcf'
p789
sS'file'
p790
S'ATmegaBOOT_168_atmega328_pro_8MHz.hex'
p791
sS'path'
p792
S'atmega'
p793
sS'unlock_bits'
p794
S'0xff'
p795
ssS'build'
p796
(dp797
S'core'
p798
S'arduino'
p799
sS'mcu'
p800
S'atmega328p'
p801
sS'f_cpu'
p802
S'8000000L'
p803
sS'variant'
p804
S'standard'
p805
ssS'name'
p806
S'LilyPad Arduino w/ ATmega328'
p807
sS'upload'
p808
(dp809
S'protocol'
p810
S'arduino'
p811
sS'maximum_size'
p812
S'30720'
p813
sS'speed'
p814
S'57600'
p815
ssaa(lp816
S'lilypad'
p817
a(dp818
g70
S'/usr/share/arduino/hardware/arduino'
p819
sS'bootloader'
p820
(dp821
S'extended_fuses'
p822
S'0xf8'
p823
sS'high_fuses'
p824
S'0xdd'
p825
sS'low_fuses'
p826
S'0xe2'
p827
sS'lock_bits'
p828
S'0xcf'
p829
sS'file'
p830
S'LilyPadBOOT_168.hex'
p831
sS'path'
p832
S'lilypad'
p833
sS'unlock_bits'
p834
S'0xff'
p835
ssS'build'
p836
(dp837
S'core'
p838
S'arduino'
p839
sS'mcu'
p840
S'atmega168'
p841
sS'f_cpu'
p842
S'8000000L'
p843
sS'variant'
p844
S'standard'
p845
ssS'name'
p846
S'LilyPad Arduino w/ ATmega168'
p847
sS'upload'
p848
(dp849
S'protocol'
p850
S'arduino'
p851
sS'maximum_size'
p852
S'14336'
p853
sS'speed'
p854
S'19200'
p855
ssaa(lp856
S'pro5v328'
p857
a(dp858
g70
S'/usr/share/arduino/hardware/arduino'
p859
sS'bootloader'
p860
(dp861
S'extended_fuses'
p862
S'0xfd'
p863
sS'high_fuses'
p864
S'0xDA'
p865
sS'low_fuses'
p866
S'0xFF'
p867
sS'lock_bits'
p868
S'0xcf'
p869
sS'file'
p870
S'ATmegaBOOT_168_atmega328.hex'
p871
sS'path'
p872
S'atmega'
p873
sS'unlock_bits'
p874
S'0xff'
p875
ssS'build'
p876
(dp877
S'core'
p878
S'arduino'
p879
sS'mcu'
p880
S'atmega328p'
p881
sS'f_cpu'
p882
S'16000000L'
p883
sS'variant'
p884
S'standard'
p885
ssS'name'
p886
S'Arduino Pro or Pro Mini (5V, 16 MHz) w/ ATmega328'
p887
sS'upload'
p888
(dp889
S'protocol'
p890
S'arduino'
p891
sS'maximum_size'
p892
S'30720'
p893
sS'speed'
p894
S'57600'
p895
ssaa(lp896
S'pro5v'
p897
a(dp898
g70
S'/usr/share/arduino/hardware/arduino'
p899
sS'bootloader'
p900
(dp901
S'extended_fuses'
p902
S'0xf8'
p903
sS'high_fuses'
p904
S'0xdd'
p905
sS'low_fuses'
p906
S'0xff'
p907
sS'lock_bits'
p908
S'0xcf'
p909
sS'file'
p910
S'ATmegaBOOT_168_diecimila.hex'
p911
sS'path'
p912
S'atmega'
p913
sS'unlock_bits'
p914
S'0xff'
p915
ssS'build'
p916
(dp917
S'core'
p918
S'arduino'
p919
sS'mcu'
p920
S'atmega168'
p921
sS'f_cpu'
p922
S'16000000L'
p923
sS'variant'
p924
S'standard'
p925
ssS'name'
p926
S'Arduino Pro or Pro Mini (5V, 16 MHz) w/ ATmega168'
p927
sS'upload'
p928
(dp929
S'protocol'
p930
S'arduino'
p931
sS'maximum_size'
p932
S'14336'
p933
sS'speed'
p934
S'19200'
p935
ssaa(lp936
S'pro328'
p937
a(dp938
g70
S'/usr/share/arduino/hardware/arduino'
p939
sS'bootloader'
p940
(dp941
S'extended_fuses'
p942
S'0xfd'
p943
sS'high_fuses'
p944
S'0xDA'
p945
sS'low_fuses'
p946
S'0xFF'
p947
sS'lock_bits'
p948
S'0xcf'
p949
sS'file'
p950
S'ATmegaBOOT_168_atmega328_pro_8MHz.hex'
p951
sS'path'
p952
S'atmega'
p953
sS'unlock_bits'
p954
S'0xff'
p955
ssS'build'
p956
(dp957
S'core'
p958
S'arduino'
p959
sS'mcu'
p960
S'atmega328p'
p961
sS'f_cpu'
p962
S'8000000L'
p963
sS'variant'
p964
S'standard'
p965
ssS'name'
p966
S'Arduino Pro or Pro Mini (3.3V, 8 MHz) w/ ATmega328'
p967
sS'upload'
p968
(dp969
S'protocol'
p970
S'arduino'
p971
sS'maximum_size'
p972
S'30720'
p973
sS'speed'
p974
S'57600'
p975
ssaa(lp976
S'pro'
p977
a(dp978
g70
S'/usr/share/arduino/hardware/arduino'
p979
sS'bootloader'
p980
(dp981
S'extended_fuses'
p982
S'0xf8'
p983
sS'high_fuses'
p984
S'0xdd'
p985
sS'low_fuses'
p986
S'0xc6'
p987
sS'lock_bits'
p988
S'0xcf'
p989
sS'file'
p990
S'ATmegaBOOT_168_pro_8MHz.hex'
p991
sS'path'
p992
S'atmega'
p993
sS'unlock_bits'
p994
S'0xff'
p995
ssS'build'
p996
(dp997
S'core'
p998
S'arduino'
p999
sS'mcu'
p1000
S'atmega168'
p1001
sS'f_cpu'
p1002
S'8000000L'
p1003
sS'variant'
p1004
S'standard'
p1005
ssS'name'
p1006
S'Arduino Pro or Pro Mini (3.3V, 8 MHz) w/ ATmega168'
p1007
sS'upload'
p1008
(dp1009
S'protocol'
p1010
S'arduino'
p1011
sS'maximum_size'
p1012
S'14336'
p1013
sS'speed'
p1014
S'19200'
p1015
ssaa(lp1016
S'atmega168'
p1017
a(dp1018
g70
S'/usr/share/arduino/hardware/arduino'
p1019
sS'bootloader'
p1020
(dp1021
S'extended_fuses'
p1022
S'0xf8'
p1023
sS'high_fuses'
p1024
S'0xdd'
p1025
sS'low_fuses'
p1026
S'0xff'
p1027
sS'lock_bits'
p1028
S'0xcf'
p1029
sS'file'
p1030
S'ATmegaBOOT_168_ng.hex'
p1031
sS'path'
p1032
S'atmega'
p1033
sS'unlock_bits'
p1034
S'0xff'
p1035
ssS'build'
p1036
(dp1037
S'core'
p1038
S'arduino'
p1039
sS'mcu'
p1040
S'atmega168'
p1041
sS'f_cpu'
p1042
S'16000000L'
p1043
sS'variant'
p1044
S'standard'
p1045
ssS'name'
p1046
S'Arduino NG or older w/ ATmega168'
p1047
sS'upload'
p1048
(dp1049
S'protocol'
p1050
S'arduino'
p1051
sS'maximum_size'
p1052
S'14336'
p1053
sS'speed'
p1054
S'19200'
p1055
ssaa(lp1056
S'atmega8'
p1057
a(dp1058
g70
S'/usr/share/arduino/hardware/arduino'
p1059
sS'bootloader'
p1060
(dp1061
S'high_fuses'
p1062
S'0xca'
p1063
sS'low_fuses'
p1064
S'0xdf'
p1065
sS'lock_bits'
p1066
S'0xcf'
p1067
sS'file'
p1068
S'ATmegaBOOT-prod-firmware-2009-11-07.hex'
p1069
sS'path'
p1070
S'atmega8'
p1071
sS'unlock_bits'
p1072
S'0xff'
p1073
ssS'build'
p1074
(dp1075
S'core'
p1076
S'arduino'
p1077
sS'mcu'
p1078
S'atmega8'
p1079
sS'f_cpu'
p1080
S'16000000L'
p1081
sS'variant'
p1082
S'standard'
p1083
ssS'name'
p1084
S'Arduino NG or older w/ ATmega8'
p1085
sS'upload'
p1086
(dp1087
S'protocol'
p1088
S'arduino'
p1089
sS'maximum_size'
p1090
S'7168'
p1091
sS'speed'
p1092
S'19200'
p1093
ssaa(lp1094
S'robotControl'
p1095
a(dp1096
g70
S'/usr/share/arduino/hardware/arduino'
p1097
sS'bootloader'
p1098
(dp1099
S'extended_fuses'
p1100
S'0xcb'
p1101
sS'high_fuses'
p1102
S'0xd8'
p1103
sS'low_fuses'
p1104
S'0xff'
p1105
sS'lock_bits'
p1106
S'0xef'
p1107
sS'file'
p1108
S'Caterina-Robot-Control.hex'
p1109
sS'path'
p1110
S'caterina-Arduino_Robot'
p1111
sS'unlock_bits'
p1112
S'0xff'
p1113
ssS'build'
p1114
(dp1115
S'core'
p1116
S'robot'
p1117
sS'f_cpu'
p1118
S'16000000L'
p1119
sS'vid'
p1120
S'0x2341'
p1121
sS'pid'
p1122
S'0x8038'
p1123
sS'variant'
p1124
S'robot_control'
p1125
sS'mcu'
p1126
S'atmega32u4'
p1127
ssS'name'
p1128
S'Arduino Robot Control'
p1129
sS'upload'
p1130
(dp1131
S'protocol'
p1132
S'avr109'
p1133
sS'maximum_size'
p1134
S'28672'
p1135
sS'speed'
p1136
S'57600'
p1137
sS'disable_flushing'
p1138
S'true'
p1139
ssaa(lp1140
S'robotMotor'
p1141
a(dp1142
g70
S'/usr/share/arduino/hardware/arduino'
p1143
sS'bootloader'
p1144
(dp1145
S'extended_fuses'
p1146
S'0xcb'
p1147
sS'high_fuses'
p1148
S'0xd8'
p1149
sS'low_fuses'
p1150
S'0xff'
p1151
sS'lock_bits'
p1152
S'0xef'
p1153
sS'file'
p1154
S'Caterina-Robot-Motor.hex'
p1155
sS'path'
p1156
S'caterina-Arduino_Robot'
p1157
sS'unlock_bits'
p1158
S'0xff'
p1159
ssS'build'
p1160
(dp1161
S'core'
p1162
S'robot'
p1163
sS'f_cpu'
p1164
S'16000000L'
p1165
sS'vid'
p1166
S'0x2341'
p1167
sS'pid'
p1168
S'0x8039'
p1169
sS'variant'
p1170
S'robot_motor'
p1171
sS'mcu'
p1172
S'atmega32u4'
p1173
ssS'name'
p1174
S'Arduino Robot Motor'
p1175
sS'upload'
p1176
(dp1177
S'protocol'
p1178
S'avr109'
p1179
sS'maximum_size'
p1180
S'28672'
p1181
sS'speed'
p1182
S'57600'
p1183
sS'disable_flushing'
p1184
S'true'
p1185
ssaatp1186
Rp1187
(dp1188
S'default'
p1189
S'uno'
p1190
sbtp1191
a(S'used_libs'
p1192
(lp1193
S'lib/Encoder-Library'
p1194
aS'lib/Arduino-PID-Library'
p1195
aS'/usr/share/arduino/hardware/arduino/cores/arduino'
p1196
atp1197
a(S'make'
p1198
S'/usr/share/arduino/hardware/tools/avr/bin/make'
p1199
tp1200
a(S'build_dir'
p1201
S'.build/mega2560'
p1202
tp1203
a(S'cc'
p1204
S'/usr/share/arduino/hardware/tools/avr/bin/avr-gcc'
p1205
tp1206
a(S'cflags'
p1207
g2
(g3
g4
(lp1208
tp1209
Rp1210
tp1211
a(S'cxxflags'
p1212
g2
(g3
g4
(lp1213
S'-fno-exceptions'
p1214
atp1215
Rp1216
tp1217
a(S'arduino_variants_dir'
p1218
S'/usr/share/arduino/hardware/arduino/variants'
p1219
tp1220
a(S'serial'
p1221
S'/usr/bin/picocom'
p1222
tp1223
a(S'stty'
p1224
S'/bin/stty'
p1225
tp1226
a(S'version.txt'
p1227
S'/usr/share/arduino/lib/version.txt'
p1228
tp1229
a(S'arduino_core_dir'
p1230
g1196
tp1231
a(S'boards.txt'
p1232
(lp1233
S'/usr/share/arduino/hardware/arduino/boards.txt'
p1234
atp1235
a(S'avrdude.conf'
p1236
S'/usr/share/arduino/hardware/tools/avrdude.conf'
p1237
tp1238
a(S'deps'
p1239
g2
(g3
g4
(lp1240
S'.build/mega2560/src/dependencies.d'
p1241
aS'.build/mega2560/arduino/dependencies.d'
p1242
aS'.build/mega2560/Encoder-Library/dependencies.d'
p1243
aS'.build/mega2560/Arduino-PID-Library/dependencies.d'
p1244
atp1245
Rp1246
tp1247
a.